target datalayout = "e-m:e-p270:32:32-p271:32:32-p272:64:64-i64:64-i128:128-f80:128-n8:16:32:64-S128"
target triple = "x86_64-pc-linux-gnu"

%"class.cv::freetype::FreeType2Impl" = type { %"class.cv::freetype::FreeType2", ptr, ptr, %struct.FT_Outline_Funcs_, i8, i32, ptr }
%"class.cv::freetype::FreeType2" = type { %"class.cv::Algorithm" }
%"class.cv::Algorithm" = type { ptr }
%struct.FT_Outline_Funcs_ = type { ptr, ptr, ptr, ptr, i32, i64 }

; Function Attrs: inlinehint mustprogress uwtable
define linkonce_odr hidden void @_ZN2cv8freetype9FreeType2C2Ev(ptr noundef nonnull align 8 dereferenceable(8) %0) unnamed_addr #5 comdat align 2 {
  %2 = alloca ptr, align 8
  store ptr %0, ptr %2, align 8, !tbaa !28
  %3 = load ptr, ptr %2, align 8
  call void @_ZN2cv9AlgorithmC2Ev(ptr noundef nonnull align 8 dereferenceable(8) %3)
  store ptr getelementptr inbounds inrange(-16, 104) ({ [15 x ptr] }, ptr @_ZTVN2cv8freetype9FreeType2E, i32 0, i32 0, i32 2), ptr %3, align 8, !tbaa !8
  ret void
}

; Function Attrs: mustprogress uwtable
define void @_ZN2cv8freetype13FreeType2ImplC2Ev(ptr noundef nonnull align 8 dereferenceable(88) %0) unnamed_addr #4 align 2 personality ptr @__gxx_personality_v0 {
  %2 = alloca ptr, align 8
  %3 = alloca ptr, align 8
  %4 = alloca i32, align 4
  store ptr %0, ptr %2, align 8, !tbaa !3
  %5 = load ptr, ptr %2, align 8
  call void @_ZN2cv8freetype9FreeType2C2Ev(ptr noundef nonnull align 8 dereferenceable(8) %5)
  store ptr getelementptr inbounds inrange(-16, 104) ({ [15 x ptr] }, ptr @_ZTVN2cv8freetype13FreeType2ImplE, i32 0, i32 0, i32 2), ptr %5, align 8, !tbaa !8
  %6 = getelementptr inbounds nuw %"class.cv::freetype::FreeType2Impl", ptr %5, i32 0, i32 1
  %7 = invoke i32 @FT_Init_FreeType(ptr noundef %6)
          to label %8 unwind label %23

8:                                                ; preds = %1
  %9 = getelementptr inbounds nuw %"class.cv::freetype::FreeType2Impl", ptr %5, i32 0, i32 5
  store i32 16, ptr %9, align 4, !tbaa !10
  %10 = getelementptr inbounds nuw %"class.cv::freetype::FreeType2Impl", ptr %5, i32 0, i32 3
  %11 = getelementptr inbounds nuw %struct.FT_Outline_Funcs_, ptr %10, i32 0, i32 4
  store i32 0, ptr %11, align 8, !tbaa !21
  %12 = getelementptr inbounds nuw %"class.cv::freetype::FreeType2Impl", ptr %5, i32 0, i32 3
  %13 = getelementptr inbounds nuw %struct.FT_Outline_Funcs_, ptr %12, i32 0, i32 5
  store i64 0, ptr %13, align 8, !tbaa !22
  %14 = getelementptr inbounds nuw %"class.cv::freetype::FreeType2Impl", ptr %5, i32 0, i32 3
  %15 = getelementptr inbounds nuw %struct.FT_Outline_Funcs_, ptr %14, i32 0, i32 0
  store ptr @_ZN2cv8freetype13FreeType2Impl4mvFnEPK10FT_Vector_Pv, ptr %15, align 8, !tbaa !23
  %16 = getelementptr inbounds nuw %"class.cv::freetype::FreeType2Impl", ptr %5, i32 0, i32 3
  %17 = getelementptr inbounds nuw %struct.FT_Outline_Funcs_, ptr %16, i32 0, i32 1
  store ptr @_ZN2cv8freetype13FreeType2Impl4lnFnEPK10FT_Vector_Pv, ptr %17, align 8, !tbaa !24
  %18 = getelementptr inbounds nuw %"class.cv::freetype::FreeType2Impl", ptr %5, i32 0, i32 3
  %19 = getelementptr inbounds nuw %struct.FT_Outline_Funcs_, ptr %18, i32 0, i32 3
  store ptr @_ZN2cv8freetype13FreeType2Impl4cuFnEPK10FT_Vector_S4_S4_Pv, ptr %19, align 8, !tbaa !25
  %20 = getelementptr inbounds nuw %"class.cv::freetype::FreeType2Impl", ptr %5, i32 0, i32 3
  %21 = getelementptr inbounds nuw %struct.FT_Outline_Funcs_, ptr %20, i32 0, i32 2
  store ptr @_ZN2cv8freetype13FreeType2Impl4coFnEPK10FT_Vector_S4_Pv, ptr %21, align 8, !tbaa !26
  %22 = getelementptr inbounds nuw %"class.cv::freetype::FreeType2Impl", ptr %5, i32 0, i32 4
  store i8 0, ptr %22, align 8, !tbaa !27
  ret void

23:                                               ; preds = %1
  %24 = landingpad { ptr, i32 }
          cleanup
  %25 = extractvalue { ptr, i32 } %24, 0
  store ptr %25, ptr %3, align 8
  %26 = extractvalue { ptr, i32 } %24, 1
  store i32 %26, ptr %4, align 4
  call void @_ZN2cv9AlgorithmD2Ev(ptr noundef nonnull align 8 dereferenceable(8) %5) #3
  br label %27

27:                                               ; preds = %23
  %28 = load ptr, ptr %3, align 8
  %29 = load i32, ptr %4, align 4
  %30 = insertvalue { ptr, i32 } poison, ptr %28, 0
  %31 = insertvalue { ptr, i32 } %30, i32 %29, 1
  resume { ptr, i32 } %31
}