; Function Attrs: mustprogress uwtable
define void @_ZN2cv8freetype13FreeType2ImplC2Ev(ptr noundef nonnull align 8 dereferenceable(88) %0) unnamed_addr #3 align 2 personality ptr @__gxx_personality_v0 {
  tail call void @_ZN2cv9AlgorithmC2Ev(ptr noundef nonnull align 8 dereferenceable(8) %0)
  store ptr getelementptr inbounds nuw inrange(-16, 104) (i8, ptr @_ZTVN2cv8freetype13FreeType2ImplE, i64 16), ptr %0, align 8, !tbaa !3
  %2 = getelementptr inbounds nuw i8, ptr %0, i64 8
  %3 = invoke i32 @FT_Init_FreeType(ptr noundef nonnull %2)
          to label %4 unwind label %13

4:                                                ; preds = %1
  %5 = getelementptr inbounds nuw i8, ptr %0, i64 76
  store i32 16, ptr %5, align 4, !tbaa !6
  %6 = getelementptr inbounds nuw i8, ptr %0, i64 24
  %7 = getelementptr inbounds nuw i8, ptr %0, i64 56
  store i32 0, ptr %7, align 8, !tbaa !19
  %8 = getelementptr inbounds nuw i8, ptr %0, i64 64
  store i64 0, ptr %8, align 8, !tbaa !20
  store ptr @_ZN2cv8freetype13FreeType2Impl4mvFnEPK10FT_Vector_Pv, ptr %6, align 8, !tbaa !21
  %9 = getelementptr inbounds nuw i8, ptr %0, i64 32
  store ptr @_ZN2cv8freetype13FreeType2Impl4lnFnEPK10FT_Vector_Pv, ptr %9, align 8, !tbaa !22
  %10 = getelementptr inbounds nuw i8, ptr %0, i64 48
  store ptr @_ZN2cv8freetype13FreeType2Impl4cuFnEPK10FT_Vector_S4_S4_Pv, ptr %10, align 8, !tbaa !23
  %11 = getelementptr inbounds nuw i8, ptr %0, i64 40
  store ptr @_ZN2cv8freetype13FreeType2Impl4coFnEPK10FT_Vector_S4_Pv, ptr %11, align 8, !tbaa !24
  %12 = getelementptr inbounds nuw i8, ptr %0, i64 72
  store i8 0, ptr %12, align 8, !tbaa !25
  ret void

13:                                               ; preds = %1
  %14 = landingpad { ptr, i32 }
          cleanup
  tail call void @_ZN2cv9AlgorithmD2Ev(ptr noundef nonnull align 8 dereferenceable(8) %0) #20
  resume { ptr, i32 } %14
}